(dp0
S'Nsettle'
p1
I5000000
sS'params'
p2
(dp3
S'settle_time'
p4
F0.25
sS'tx_gaindB'
p5
I20
sS'rf_frequency'
p6
F2350000000.0
sS'session_tag'
p7
S'sig_source'
p8
sS'rx_gaindB'
p9
I0
ssS'outputfile'
p10
S'tmp.bin'
p11
sS'sample_rate'
p12
F20000000.0
sS'Nsuperframe'
p13
I50597
s.